target datalayout = "e-m:e-p270:32:32-p271:32:32-p272:64:64-i64:64-i128:128-f80:128-n8:16:32:64-S128"
target triple = "x86_64-pc-linux-gnu"

%struct._zend_array = type { %struct._zend_refcounted_h, %union.anon.0, i32, %union.anon.1, i32, i32, i32, i32, i64, ptr }
%struct._zend_refcounted_h = type { i32, %union.anon }
%union.anon = type { i32 }
%union.anon.0 = type { i32 }
%union.anon.1 = type { ptr }
%struct.php_file_globals = type { i32, i64, i8, i64, ptr, ptr, ptr, ptr, ptr, ptr, ptr, i32, %struct.hostent, ptr, i64 }
%struct.hostent = type { ptr, ptr, i32, i32, ptr }
%struct._zval_struct = type { %union._zend_value, %union.anon.3, %union.anon.6 }
%union._zend_value = type { i64 }
%union.anon.3 = type { i32 }
%union.anon.6 = type { i32 }

@stream_filters_hash = internal global %struct._zend_array zeroinitializer, align 8
@file_globals = external global %struct.php_file_globals, align 8

; Function Attrs: nounwind uwtable
define i32 @php_stream_filter_register_factory_volatile(ptr noundef %0, ptr noundef %1) #0 {
  %3 = alloca ptr, align 8
  %4 = alloca ptr, align 8
  %5 = alloca ptr, align 8
  %6 = alloca ptr, align 8
  %7 = alloca ptr, align 8
  %8 = alloca %struct._zval_struct, align 8
  %9 = alloca ptr, align 8
  %10 = alloca ptr, align 8
  %11 = alloca ptr, align 8
  store ptr %0, ptr %10, align 8
  store ptr %1, ptr %11, align 8
  %12 = load ptr, ptr getelementptr inbounds (%struct.php_file_globals, ptr @file_globals, i32 0, i32 9), align 8
  %13 = icmp ne ptr %12, null
  br i1 %13, label %22, label %14

14:                                               ; preds = %2
  %15 = call noalias ptr @_emalloc_56()
  store ptr %15, ptr getelementptr inbounds (%struct.php_file_globals, ptr @file_globals, i32 0, i32 9), align 8
  %16 = load ptr, ptr getelementptr inbounds (%struct.php_file_globals, ptr @file_globals, i32 0, i32 9), align 8
  store ptr @stream_filters_hash, ptr %3, align 8
  %17 = load ptr, ptr %3, align 8
  %18 = getelementptr inbounds %struct._zend_array, ptr %17, i32 0, i32 5
  %19 = load i32, ptr %18, align 4
  %20 = add i32 %19, 1
  call void @_zend_hash_init(ptr noundef %16, i32 noundef %20, ptr noundef null, i1 noundef zeroext false)
  %21 = load ptr, ptr getelementptr inbounds (%struct.php_file_globals, ptr @file_globals, i32 0, i32 9), align 8
  call void @zend_hash_copy(ptr noundef %21, ptr noundef @stream_filters_hash, ptr noundef null)
  br label %22

22:                                               ; preds = %14, %2
  %23 = load ptr, ptr getelementptr inbounds (%struct.php_file_globals, ptr @file_globals, i32 0, i32 9), align 8
  %24 = load ptr, ptr %10, align 8
  %25 = load ptr, ptr %11, align 8
  store ptr %23, ptr %5, align 8
  store ptr %24, ptr %6, align 8
  store ptr %25, ptr %7, align 8
  %26 = load ptr, ptr %7, align 8
  store ptr %26, ptr %8, align 8
  %27 = getelementptr inbounds %struct._zval_struct, ptr %8, i32 0, i32 1
  store i32 13, ptr %27, align 8
  %28 = load ptr, ptr %5, align 8
  %29 = load ptr, ptr %6, align 8
  %30 = call ptr @zend_hash_add(ptr noundef %28, ptr noundef %29, ptr noundef %8) #12
  store ptr %30, ptr %9, align 8
  %31 = load ptr, ptr %9, align 8
  %32 = icmp ne ptr %31, null
  br i1 %32, label %33, label %39

33:                                               ; preds = %22
  %34 = load ptr, ptr %9, align 8
  %35 = load ptr, ptr %34, align 8
  %36 = icmp ne ptr %35, null
  call void @llvm.assume(i1 %36)
  %37 = load ptr, ptr %9, align 8
  %38 = load ptr, ptr %37, align 8
  store ptr %38, ptr %4, align 8
  br label %40

39:                                               ; preds = %22
  store ptr null, ptr %4, align 8
  br label %40

40:                                               ; preds = %39, %33
  %41 = load ptr, ptr %4, align 8
  %42 = icmp ne ptr %41, null
  %43 = select i1 %42, i32 0, i32 -1
  ret i32 %43
}