; Function Attrs: nounwind uwtable
define i32 @php_stream_filter_register_factory_volatile(ptr noundef %0, ptr noundef %1) local_unnamed_addr #2 {
  %3 = alloca %struct._zval_struct, align 8
  %4 = load ptr, ptr getelementptr inbounds (%struct.php_file_globals, ptr @file_globals, i64 0, i32 9), align 8
  %.not = icmp eq ptr %4, null
  br i1 %.not, label %5, label %10

5:                                                ; preds = %2
  %6 = tail call noalias ptr @_emalloc_56() #14
  store ptr %6, ptr getelementptr inbounds (%struct.php_file_globals, ptr @file_globals, i64 0, i32 9), align 8
  %7 = load i32, ptr getelementptr inbounds (%struct._zend_array, ptr @stream_filters_hash, i64 0, i32 5), align 4
  %8 = add i32 %7, 1
  tail call void @_zend_hash_init(ptr noundef %6, i32 noundef %8, ptr noundef null, i1 noundef zeroext false) #14
  %9 = load ptr, ptr getelementptr inbounds (%struct.php_file_globals, ptr @file_globals, i64 0, i32 9), align 8
  tail call void @zend_hash_copy(ptr noundef %9, ptr noundef nonnull @stream_filters_hash, ptr noundef null) #14
  %.pre = load ptr, ptr getelementptr inbounds (%struct.php_file_globals, ptr @file_globals, i64 0, i32 9), align 8
  br label %10

10:                                               ; preds = %5, %2
  %11 = phi ptr [ %.pre, %5 ], [ %4, %2 ]
  store ptr %1, ptr %3, align 8
  %12 = getelementptr inbounds i8, ptr %3, i64 8
  store i32 13, ptr %12, align 8
  %13 = call ptr @zend_hash_add(ptr noundef %11, ptr noundef %0, ptr noundef nonnull %3) #14
  %.not11 = icmp eq ptr %13, null
  %14 = sext i1 %.not11 to i32
  ret i32 %14
}